(dp0
S'Olea_Europaea'
p1
I42
sS'Acer_Saccharinum'
p2
I9
sS'Quercus_Pontica'
p3
I74
sS'Alnus_Viridis'
p4
I14
sS'Acer_Rufinerve'
p5
I8
sS'Acer_Rubrum'
p6
I7
sS'Cotinus_Coggygria'
p7
I25
sS'Quercus_Castaneifolia'
p8
I55
sS'Cornus_Macrophylla'
p9
I24
sS'Quercus_Pyrenaica'
p10
I76
sS'Quercus_Rubra'
p11
I78
sS'Quercus_Semecarpifolia'
p12
I79
sS'Quercus_Afares'
p13
I50
sS'Quercus_Pubescens'
p14
I75
sS'Acer_Pictum'
p15
I5
sS'Ginkgo_Biloba'
p16
I32
sS'Quercus_Suber'
p17
I81
sS'Quercus_x_Turneri'
p18
I87
sS'Salix_Fragilis'
p19
I89
sS'Alnus_Cordata'
p20
I10
sS'Prunus_Avium'
p21
I47
sS'Sorbus_Aria'
p22
I91
sS'Acer_Opalus'
p23
I3
sS'Alnus_Maximowiczii'
p24
I11
sS'Tilia_Oliveri'
p25
I92
sS'Quercus_Trojana'
p26
I83
sS'Quercus_Phellos'
p27
I72
sS'Tilia_Tomentosa'
p28
I94
sS'Quercus_Greggii'
p29
I64
sS'Rhododendron_x_Russellianum'
p30
I88
sS'Quercus_Rhysophylla'
p31
I77
sS'Quercus_Crassifolia'
p32
I60
sS'Liquidambar_Styraciflua'
p33
I35
sS'Castanea_Sativa'
p34
I19
sS'Callicarpa_Bodinieri'
p35
I18
sS'Quercus_Shumardii'
p36
I80
sS'Zelkova_Serrata'
p37
I98
sS'Eucalyptus_Urnigera'
p38
I30
sS'Liriodendron_Tulipifera'
p39
I36
sS'Fagus_Sylvatica'
p40
I31
sS'Betula_Austrosinensis'
p41
I16
sS'Crataegus_Monogyna'
p42
I26
sS'Populus_Adenopoda'
p43
I44
sS'Acer_Mono'
p44
I2
sS'Quercus_Agrifolia'
p45
I51
sS'Acer_Circinatum'
p46
I1
sS'Magnolia_Heptapeta'
p47
I39
sS'Quercus_Texana'
p48
I82
sS'Ilex_Aquifolium'
p49
I33
sS'Lithocarpus_Cleistocarpus'
p50
I37
sS'Quercus_Coccifera'
p51
I58
sS'Quercus_Kewensis'
p52
I69
sS'Populus_Grandidentata'
p53
I45
sS'Cornus_Controversa'
p54
I23
sS'Quercus_Vulcanica'
p55
I85
sS'Cytisus_Battandieri'
p56
I27
sS'Celtis_Koraiensis'
p57
I20
sS'Acer_Capillipes'
p58
I0
sS'Quercus_Dolicholepis'
p59
I62
sS'Eucalyptus_Glaucescens'
p60
I28
sS'Arundinaria_Simonii'
p61
I15
sS'Pterocarya_Stenoptera'
p62
I49
sS'Quercus_Canariensis'
p63
I54
sS'Alnus_Rubra'
p64
I12
sS'Quercus_Cerris'
p65
I56
sS'Quercus_Ellipsoidalis'
p66
I63
sS'Quercus_Palustris'
p67
I71
sS'Quercus_Ilex'
p68
I66
sS'Prunus_X_Shmittii'
p69
I48
sS'Quercus_Coccinea'
p70
I59
sS'Quercus_Variabilis'
p71
I84
sS'Lithocarpus_Edulis'
p72
I38
sS'Quercus_x_Hispanica'
p73
I86
sS'Magnolia_Salicifolia'
p74
I40
sS'Phildelphus'
p75
I43
sS'Acer_Platanoids'
p76
I6
sS'Tilia_Platyphyllos'
p77
I93
sS'Acer_Palmatum'
p78
I4
sS'Populus_Nigra'
p79
I46
sS'Ilex_Cornuta'
p80
I34
sS'Betula_Pendula'
p81
I17
sS'Cercis_Siliquastrum'
p82
I21
sS'Quercus_Phillyraeoides'
p83
I73
sS'Quercus_Alnifolia'
p84
I52
sS'Quercus_Brantii'
p85
I53
sS'Viburnum_x_Rhytidophylloides'
p86
I97
sS'Quercus_Chrysolepis'
p87
I57
sS'Quercus_Nigra'
p88
I70
sS'Morus_Nigra'
p89
I41
sS'Cornus_Chinensis'
p90
I22
sS'Ulmus_Bergmanniana'
p91
I95
sS'Alnus_Sieboldiana'
p92
I13
sS'Eucalyptus_Neglecta'
p93
I29
sS'Quercus_Infectoria_sub'
p94
I68
sS'Quercus_Hartwissiana'
p95
I65
sS'Viburnum_Tinus'
p96
I96
sS'Quercus_Imbricaria'
p97
I67
sS'Quercus_Crassipes'
p98
I61
sS'Salix_Intergra'
p99
I90
s.